(dp0
S'user4'
p1
(dp2
S'book16'
p3
S'2016-10-14'
p4
sS'book17'
p5
g4
sS'book15'
p6
S'2016-11-15'
p7
ssS'user2'
p8
(dp9
sS'user3'
p10
(dp11
S'book14'
p12
g7
ssS'user1'
p13
(dp14
S'book12'
p15
g7
sS'book13'
p16
g4
ss.